	.text
	.file	"pa-test.cpp"
	.file	0 "/home/kamel/old/kamel/cybersecurity-project/workspace/pa-test/build/make.debug.linux.x86_64" "/home/kamel/old/kamel/cybersecurity-project/workspace/pa-test/pa-test.cpp" md5 0xbf79fdda28267fa17e2758bbe86a2e65
	.file	1 "/home/kamel/old/kamel/cybersecurity-project" "qemu-arm64-machine/debian/aarch64-sysroot/lib/gcc/aarch64-linux-gnu/10/../../../../include/c++/10/iostream"
	.file	2 "/home/kamel/old/kamel/cybersecurity-project/workspace/pa-test" "pa-test.cpp" md5 0xbf79fdda28267fa17e2758bbe86a2e65
	.section	.text.startup,"ax",@progbits
	.p2align	2                               // -- Begin function __cxx_global_var_init
	.type	__cxx_global_var_init,@function
__cxx_global_var_init:                  // @__cxx_global_var_init
.Lfunc_begin0:
	.loc	2 0 0                           // pa-test.cpp:0:0
	.cfi_startproc
// %bb.0:
	sub	sp, sp, #32
	.cfi_def_cfa_offset 32
	stp	x29, x30, [sp, #16]             // 16-byte Folded Spill
	add	x29, sp, #16
	.cfi_def_cfa w29, 16
	.cfi_offset w30, -8
	.cfi_offset w29, -16
	adrp	x0, _ZStL8__ioinit
	add	x0, x0, :lo12:_ZStL8__ioinit
	str	x0, [sp, #8]                    // 8-byte Folded Spill
.Ltmp0:
	.loc	1 74 25 prologue_end            // qemu-arm64-machine/debian/aarch64-sysroot/lib/gcc/aarch64-linux-gnu/10/../../../../include/c++/10/iostream:74:25
	bl	_ZNSt8ios_base4InitC1Ev
	ldr	x1, [sp, #8]                    // 8-byte Folded Reload
	adrp	x0, :got:_ZNSt8ios_base4InitD1Ev
	ldr	x0, [x0, :got_lo12:_ZNSt8ios_base4InitD1Ev]
	adrp	x2, __dso_handle
	add	x2, x2, :lo12:__dso_handle
	.loc	2 0 0 is_stmt 0                 // pa-test.cpp:0:0
	bl	__cxa_atexit
	.cfi_def_cfa wsp, 32
	.loc	1 74 25 epilogue_begin          // qemu-arm64-machine/debian/aarch64-sysroot/lib/gcc/aarch64-linux-gnu/10/../../../../include/c++/10/iostream:74:25
	ldp	x29, x30, [sp, #16]             // 16-byte Folded Reload
	add	sp, sp, #32
	.cfi_def_cfa_offset 0
	.cfi_restore w30
	.cfi_restore w29
	ret
.Ltmp1:
.Lfunc_end0:
	.size	__cxx_global_var_init, .Lfunc_end0-__cxx_global_var_init
	.cfi_endproc
                                        // -- End function
	.text
	.globl	_Z5func1v                       // -- Begin function _Z5func1v
	.p2align	2
	.type	_Z5func1v,@function
_Z5func1v:                              // @_Z5func1v
.Lfunc_begin1:
	.loc	2 3 0 is_stmt 1                 // pa-test.cpp:3:0
	.cfi_startproc
// %bb.0:
	add	x0, x30, #0
	mov	x1, sp
	add	x2, x27, #0
	add	x3, x28, #0
	bl	_ZN7QARMA6412sign_pointerEyyyy
	add	x30, x0, #0
	stp	x29, x30, [sp, #-16]!           // 16-byte Folded Spill
	.cfi_def_cfa_offset 16
	mov	x29, sp
	.cfi_def_cfa w29, 16
	.cfi_offset w30, -8
	.cfi_offset w29, -16
.Ltmp2:
	.loc	2 4 12 prologue_end             // pa-test.cpp:4:12
	adrp	x0, :got:_ZSt4cout
	ldr	x0, [x0, :got_lo12:_ZSt4cout]
	adrp	x1, .L.str
	add	x1, x1, :lo12:.L.str
	bl	_ZStlsISt11char_traitsIcEERSt13basic_ostreamIcT_ES5_PKc
	.loc	2 4 28 is_stmt 0                // pa-test.cpp:4:28
	adrp	x1, :got:_ZSt4endlIcSt11char_traitsIcEERSt13basic_ostreamIT_T0_ES6_
	ldr	x1, [x1, :got_lo12:_ZSt4endlIcSt11char_traitsIcEERSt13basic_ostreamIT_T0_ES6_]
	bl	_ZNSolsEPFRSoS_E
	.cfi_def_cfa wsp, 16
	.loc	2 5 1 epilogue_begin is_stmt 1  // pa-test.cpp:5:1
	ldp	x29, x30, [sp], #16             // 16-byte Folded Reload
	.cfi_def_cfa_offset 0
	add	x0, x30, #0
	mov	x1, sp
	add	x2, x27, #0
	add	x3, x28, #0
	bl	_ZN7QARMA6414verify_pointerEyyyy
	add	x30, x0, #0
	.cfi_restore w30
	.cfi_restore w29
	ret
.Ltmp3:
.Lfunc_end1:
	.size	_Z5func1v, .Lfunc_end1-_Z5func1v
	.cfi_endproc
                                        // -- End function
	.globl	main                            // -- Begin function main
	.p2align	2
	.type	main,@function
main:                                   // @main
.Lfunc_begin2:
	.loc	2 7 0                           // pa-test.cpp:7:0
	.cfi_startproc
// %bb.0:
	sub	sp, sp, #80
	.cfi_def_cfa_offset 80
	stp	x29, x30, [sp, #48]             // 16-byte Folded Spill
	stp	x28, x27, [sp, #64]             // 16-byte Folded Spill
	add	x29, sp, #48
	.cfi_def_cfa w29, 32
	.cfi_offset w27, -8
	.cfi_offset w28, -16
	.cfi_offset w30, -24
	.cfi_offset w29, -32
	add	x27, x0, #10
	add	x28, x0, #11
	mov	w8, wzr
	stur	w8, [x29, #-20]                 // 4-byte Folded Spill
	stur	wzr, [x29, #-4]
	stur	w0, [x29, #-8]
	stur	x1, [x29, #-16]
	adrp	x0, :got:_ZSt4cout
	ldr	x0, [x0, :got_lo12:_ZSt4cout]
	str	x0, [sp, #8]                    // 8-byte Folded Spill
.Ltmp4:
	.loc	2 8 12 prologue_end             // pa-test.cpp:8:12
	adrp	x1, .L.str.1
	add	x1, x1, :lo12:.L.str.1
	bl	_ZStlsISt11char_traitsIcEERSt13basic_ostreamIcT_ES5_PKc
	adrp	x1, :got:_ZSt4endlIcSt11char_traitsIcEERSt13basic_ostreamIT_T0_ES6_
	ldr	x1, [x1, :got_lo12:_ZSt4endlIcSt11char_traitsIcEERSt13basic_ostreamIT_T0_ES6_]
	str	x1, [sp, #16]                   // 8-byte Folded Spill
	.loc	2 8 36 is_stmt 0                // pa-test.cpp:8:36
	bl	_ZNSolsEPFRSoS_E
	.loc	2 9 2 is_stmt 1                 // pa-test.cpp:9:2
	bl	_Z5func1v
	ldr	x0, [sp, #8]                    // 8-byte Folded Reload
	.loc	2 10 12                         // pa-test.cpp:10:12
	adrp	x1, .L.str.2
	add	x1, x1, :lo12:.L.str.2
	bl	_ZStlsISt11char_traitsIcEERSt13basic_ostreamIcT_ES5_PKc
	ldr	x1, [sp, #16]                   // 8-byte Folded Reload
	.loc	2 10 41 is_stmt 0               // pa-test.cpp:10:41
	bl	_ZNSolsEPFRSoS_E
	ldur	w0, [x29, #-20]                 // 4-byte Folded Reload
	.cfi_def_cfa wsp, 80
	.loc	2 11 2 epilogue_begin is_stmt 1 // pa-test.cpp:11:2
	ldp	x28, x27, [sp, #64]             // 16-byte Folded Reload
	ldp	x29, x30, [sp, #48]             // 16-byte Folded Reload
	add	sp, sp, #80
	.cfi_def_cfa_offset 0
	.cfi_restore w27
	.cfi_restore w28
	.cfi_restore w30
	.cfi_restore w29
	ret
.Ltmp5:
.Lfunc_end2:
	.size	main, .Lfunc_end2-main
	.cfi_endproc
                                        // -- End function
	.section	.text.startup,"ax",@progbits
	.p2align	2                               // -- Begin function _GLOBAL__sub_I_pa_test.cpp
	.type	_GLOBAL__sub_I_pa_test.cpp,@function
_GLOBAL__sub_I_pa_test.cpp:             // @_GLOBAL__sub_I_pa_test.cpp
.Lfunc_begin3:
	.loc	2 0 0                           // pa-test.cpp:0:0
	.cfi_startproc
// %bb.0:
	stp	x29, x30, [sp, #-16]!           // 16-byte Folded Spill
	.cfi_def_cfa_offset 16
	mov	x29, sp
	.cfi_def_cfa w29, 16
	.cfi_offset w30, -8
	.cfi_offset w29, -16
.Ltmp6:
	bl	__cxx_global_var_init
	.cfi_def_cfa wsp, 16
	ldp	x29, x30, [sp], #16             // 16-byte Folded Reload
	.cfi_def_cfa_offset 0
	.cfi_restore w30
	.cfi_restore w29
	ret
.Ltmp7:
.Lfunc_end3:
	.size	_GLOBAL__sub_I_pa_test.cpp, .Lfunc_end3-_GLOBAL__sub_I_pa_test.cpp
	.cfi_endproc
                                        // -- End function
	.type	_ZStL8__ioinit,@object          // @_ZStL8__ioinit
	.local	_ZStL8__ioinit
	.comm	_ZStL8__ioinit,1,1
	.hidden	__dso_handle
	.type	.L.str,@object                  // @.str
	.section	.rodata.str1.1,"aMS",@progbits,1
.L.str:
	.asciz	"Function 1"
	.size	.L.str, 11

	.type	.L.str.1,@object                // @.str.1
.L.str.1:
	.asciz	"Calling function 1"
	.size	.L.str.1, 19

	.type	.L.str.2,@object                // @.str.2
.L.str.2:
	.asciz	"Retuned from function 1"
	.size	.L.str.2, 24

	.section	.init_array,"aw",@init_array
	.p2align	3, 0x0
	.xword	_GLOBAL__sub_I_pa_test.cpp
	.file	3 "/home/kamel/old/kamel/cybersecurity-project" "qemu-arm64-machine/debian/aarch64-sysroot/usr/include/aarch64-linux-gnu/bits/types/__mbstate_t.h" md5 0x82911a3e689448e3691ded3e0b471a55
	.file	4 "/home/kamel/old/kamel/cybersecurity-project" "qemu-arm64-machine/debian/aarch64-sysroot/usr/include/aarch64-linux-gnu/bits/types/mbstate_t.h" md5 0xba8742313715e20e434cf6ccb2db98e3
	.file	5 "/home/kamel/old/kamel/cybersecurity-project" "qemu-arm64-machine/debian/aarch64-sysroot/lib/gcc/aarch64-linux-gnu/10/../../../../include/c++/10/cwchar"
	.file	6 "/home/kamel/old/kamel/cybersecurity-project" "qemu-arm64-machine/debian/aarch64-sysroot/usr/include/aarch64-linux-gnu/bits/types/wint_t.h" md5 0xaa31b53ef28dc23152ceb41e2763ded3
	.file	7 "/home/kamel/old/kamel/cybersecurity-project" "qemu-arm64-machine/debian/aarch64-sysroot/usr/include/wchar.h" md5 0x8900d9ecbbe40d052c41becfbc5b5531
	.file	8 "/home/kamel/old/kamel/cybersecurity-project" "qemu-arm64-machine/debian/aarch64-sysroot/usr/include/aarch64-linux-gnu/bits/types/__FILE.h" md5 0x72a8fe90981f484acae7c6f3dfc5c2b7
	.file	9 "/home/kamel/old/kamel/cybersecurity-project" "llvm-project/build/lib/clang/18/include/stddef.h" md5 0x592de6c0120e294e25519119517dd24e
	.file	10 "/home/kamel/old/kamel/cybersecurity-project" "llvm-project/build/lib/clang/18/include/stdarg.h" md5 0x95ff2da58c2c75d7c246cff7935ff18b
	.file	11 "/home/kamel/old/kamel/cybersecurity-project" "qemu-arm64-machine/debian/aarch64-sysroot/lib/gcc/aarch64-linux-gnu/10/../../../../include/c++/10/bits/exception_ptr.h" md5 0x17ca6bef6dd8f906cb5e59165a298a13
	.file	12 "/home/kamel/old/kamel/cybersecurity-project" "qemu-arm64-machine/debian/aarch64-sysroot/lib/gcc/aarch64-linux-gnu/10/../../../../include/c++/10/debug/debug.h" md5 0xc69f68f2d2cbac034a41bb7ce5c36465
	.file	13 "/home/kamel/old/kamel/cybersecurity-project" "qemu-arm64-machine/debian/aarch64-sysroot/usr/include/aarch64-linux-gnu/bits/types.h" md5 0xf6304b1a6dcfc6bee76e9a51043b5090
	.file	14 "/home/kamel/old/kamel/cybersecurity-project" "qemu-arm64-machine/debian/aarch64-sysroot/usr/include/aarch64-linux-gnu/bits/stdint-intn.h" md5 0x081edea97425b3437dded4a7fe223193
	.file	15 "/home/kamel/old/kamel/cybersecurity-project" "qemu-arm64-machine/debian/aarch64-sysroot/lib/gcc/aarch64-linux-gnu/10/../../../../include/c++/10/cstdint"
	.file	16 "/home/kamel/old/kamel/cybersecurity-project" "qemu-arm64-machine/debian/aarch64-sysroot/usr/include/stdint.h" md5 0x24103e292ae21916e87130b926c8d2f8
	.file	17 "/home/kamel/old/kamel/cybersecurity-project" "qemu-arm64-machine/debian/aarch64-sysroot/usr/include/aarch64-linux-gnu/bits/stdint-uintn.h" md5 0xd3ea318a915682aaf6645ec16ac9f991
	.file	18 "/home/kamel/old/kamel/cybersecurity-project" "qemu-arm64-machine/debian/aarch64-sysroot/lib/gcc/aarch64-linux-gnu/10/../../../../include/c++/10/clocale"
	.file	19 "/home/kamel/old/kamel/cybersecurity-project" "qemu-arm64-machine/debian/aarch64-sysroot/usr/include/locale.h" md5 0x0cf373fc44eed8073800bdb9da87b72f
	.file	20 "/home/kamel/old/kamel/cybersecurity-project" "qemu-arm64-machine/debian/aarch64-sysroot/usr/include/ctype.h" md5 0x36575f934ef4fe7e9d50a3cb17bd5c66
	.file	21 "/home/kamel/old/kamel/cybersecurity-project" "qemu-arm64-machine/debian/aarch64-sysroot/lib/gcc/aarch64-linux-gnu/10/../../../../include/c++/10/cctype"
	.file	22 "/home/kamel/old/kamel/cybersecurity-project" "qemu-arm64-machine/debian/aarch64-sysroot/usr/include/stdlib.h" md5 0xf0db66726d35051e5af2525f5b33bd81
	.file	23 "/home/kamel/old/kamel/cybersecurity-project" "qemu-arm64-machine/debian/aarch64-sysroot/lib/gcc/aarch64-linux-gnu/10/../../../../include/c++/10/bits/std_abs.h"
	.file	24 "/home/kamel/old/kamel/cybersecurity-project" "qemu-arm64-machine/debian/aarch64-sysroot/lib/gcc/aarch64-linux-gnu/10/../../../../include/c++/10/cstdlib"
	.file	25 "/home/kamel/old/kamel/cybersecurity-project" "qemu-arm64-machine/debian/aarch64-sysroot/usr/include/aarch64-linux-gnu/bits/types/FILE.h" md5 0x571f9fb6223c42439075fdde11a0de5d
	.file	26 "/home/kamel/old/kamel/cybersecurity-project" "qemu-arm64-machine/debian/aarch64-sysroot/lib/gcc/aarch64-linux-gnu/10/../../../../include/c++/10/cstdio"
	.file	27 "/home/kamel/old/kamel/cybersecurity-project" "qemu-arm64-machine/debian/aarch64-sysroot/usr/include/aarch64-linux-gnu/bits/types/__fpos_t.h" md5 0x32de8bdaf3551a6c0a9394f9af4389ce
	.file	28 "/home/kamel/old/kamel/cybersecurity-project" "qemu-arm64-machine/debian/aarch64-sysroot/usr/include/stdio.h" md5 0x5b917eded35ce2507d1e294bf8cb74d7
	.file	29 "/home/kamel/old/kamel/cybersecurity-project" "qemu-arm64-machine/debian/aarch64-sysroot/usr/include/wctype.h" md5 0xe83097fbf57cc71ea472db59df3ba75d
	.file	30 "/home/kamel/old/kamel/cybersecurity-project" "qemu-arm64-machine/debian/aarch64-sysroot/lib/gcc/aarch64-linux-gnu/10/../../../../include/c++/10/cwctype"
	.file	31 "/home/kamel/old/kamel/cybersecurity-project" "qemu-arm64-machine/debian/aarch64-sysroot/usr/include/aarch64-linux-gnu/bits/wctype-wchar.h" md5 0x3598b9d23ef5d76319026b46e316b55f
	.section	".note.GNU-stack","",@progbits
	.addrsig
	.addrsig_sym __cxx_global_var_init
	.addrsig_sym __cxa_atexit
	.addrsig_sym _Z5func1v
	.addrsig_sym _ZStlsISt11char_traitsIcEERSt13basic_ostreamIcT_ES5_PKc
	.addrsig_sym _ZNSolsEPFRSoS_E
	.addrsig_sym _ZSt4endlIcSt11char_traitsIcEERSt13basic_ostreamIT_T0_ES6_
	.addrsig_sym _GLOBAL__sub_I_pa_test.cpp
	.addrsig_sym _ZStL8__ioinit
	.addrsig_sym __dso_handle
	.addrsig_sym _ZSt4cout